; Function Attrs: nofree norecurse nosync nounwind memory(argmem: read) uwtable
define i64 @getControlFlipMask(ptr noundef readonly captures(none) %0, ptr noundef readonly captures(none) %1, i32 noundef %2) local_unnamed_addr #0 {
  %4 = icmp sgt i32 %2, 0
  br i1 %4, label %.lr.ph.preheader, label %._crit_edge

.lr.ph.preheader:                                 ; preds = %3
  %wide.trip.count = zext nneg i32 %2 to i64
  br label %.lr.ph

._crit_edge:                                      ; preds = %14, %3
  %.08.lcssa = phi i64 [ 0, %3 ], [ %.1, %14 ]
  ret i64 %.08.lcssa

.lr.ph:                                           ; preds = %.lr.ph.preheader, %14
  %indvars.iv = phi i64 [ 0, %.lr.ph.preheader ], [ %indvars.iv.next, %14 ]
  %.089 = phi i64 [ 0, %.lr.ph.preheader ], [ %.1, %14 ]
  %5 = getelementptr inbounds nuw i32, ptr %1, i64 %indvars.iv
  %6 = load i32, ptr %5, align 4, !tbaa !4
  %7 = icmp eq i32 %6, 0
  br i1 %7, label %8, label %14

8:                                                ; preds = %.lr.ph
  %9 = getelementptr inbounds nuw i32, ptr %0, i64 %indvars.iv
  %10 = load i32, ptr %9, align 4, !tbaa !4
  %11 = zext nneg i32 %10 to i64
  %12 = shl nuw i64 1, %11
  %13 = or i64 %12, %.089
  br label %14

14:                                               ; preds = %.lr.ph, %8
  %.1 = phi i64 [ %13, %8 ], [ %.089, %.lr.ph ]
  %indvars.iv.next = add nuw nsw i64 %indvars.iv, 1
  %exitcond.not = icmp eq i64 %indvars.iv.next, %wide.trip.count
  br i1 %exitcond.not, label %._crit_edge, label %.lr.ph
}